#include <math.h>
#include <stdio.h>
#include <stdlib.h>
#include <string.h>


int main(int argc, char* argv[])
{
	int n,i,sum=0;
	scanf("%d",&n);
	for (i=1;i<=n;i++)
	{
		if (i>=10)
		{
			if((i%7!=0)&&(i%10!=7)&&(((i-i%10)/10)%10!=7))
		    sum=sum+i*i;
		}
		else if(i!=7)
		{
			sum=sum+i*i;
		}
	}
	printf("%d",sum);
	return 0;
}

